target datalayout = "e-m:e-p270:32:32-p271:32:32-p272:64:64-i64:64-i128:128-f80:128-n8:16:32:64-S128"
target triple = "x86_64-pc-linux-gnu"

%class.ptr_vector.40 = type { %class.vector.41 }
%class.vector.41 = type { ptr }
%class.ref_vector.79 = type { %class.ref_vector_core.80 }
%class.ref_vector_core.80 = type { %class.ref_manager_wrapper.81, %class.ptr_vector.40 }
%class.ref_manager_wrapper.81 = type { ptr }
%class.obj_ref.141 = type { ptr, ptr }
%class.vector.142 = type { ptr }
%"class.ref_vector<datalog::rule, datalog::rule_manager>::element_ref" = type { ptr, ptr }

; Function Attrs: mustprogress nounwind uwtable
define linkonce_odr hidden noundef i32 @_ZNK6vectorIPN7datalog4ruleELb0EjE4sizeEv(ptr noundef nonnull align 8 dereferenceable(8) %0) #5 comdat align 2 {
  %2 = alloca i32, align 4
  %3 = alloca ptr, align 8
  store ptr %0, ptr %3, align 8, !tbaa !370
  %4 = load ptr, ptr %3, align 8
  %5 = getelementptr inbounds nuw %class.vector.41, ptr %4, i32 0, i32 0
  %6 = load ptr, ptr %5, align 8, !tbaa !372
  %7 = icmp eq ptr %6, null
  br i1 %7, label %8, label %9

8:                                                ; preds = %1
  store i32 0, ptr %2, align 4
  br label %14

9:                                                ; preds = %1
  %10 = getelementptr inbounds nuw %class.vector.41, ptr %4, i32 0, i32 0
  %11 = load ptr, ptr %10, align 8, !tbaa !372
  %12 = getelementptr inbounds i32, ptr %11, i64 -1
  %13 = load i32, ptr %12, align 4, !tbaa !10
  store i32 %13, ptr %2, align 4
  br label %14

14:                                               ; preds = %9, %8
  %15 = load i32, ptr %2, align 4
  ret i32 %15
}

; Function Attrs: mustprogress nounwind uwtable
define linkonce_odr hidden void @_ZN10ref_vectorIN7datalog4ruleENS0_12rule_managerEE11element_refC2ERPS1_RS2_(ptr noundef nonnull align 8 dereferenceable(16) %0, ptr noundef nonnull align 8 dereferenceable(8) %1, ptr noundef nonnull align 8 dereferenceable(1104) %2) unnamed_addr #5 comdat align 2 {
  %4 = alloca ptr, align 8
  %5 = alloca ptr, align 8
  %6 = alloca ptr, align 8
  store ptr %0, ptr %4, align 8, !tbaa !411
  store ptr %1, ptr %5, align 8, !tbaa !363
  store ptr %2, ptr %6, align 8, !tbaa !16
  %7 = load ptr, ptr %4, align 8
  %8 = getelementptr inbounds nuw %"class.ref_vector<datalog::rule, datalog::rule_manager>::element_ref", ptr %7, i32 0, i32 0
  %9 = load ptr, ptr %5, align 8, !tbaa !363
  store ptr %9, ptr %8, align 8, !tbaa !363
  %10 = getelementptr inbounds nuw %"class.ref_vector<datalog::rule, datalog::rule_manager>::element_ref", ptr %7, i32 0, i32 1
  %11 = load ptr, ptr %6, align 8, !tbaa !16
  store ptr %11, ptr %10, align 8, !tbaa !16
  ret void
}

; Function Attrs: mustprogress nounwind uwtable
define linkonce_odr hidden noundef nonnull align 8 dereferenceable(8) ptr @_ZN6vectorIPN7datalog4ruleELb0EjEixEj(ptr noundef nonnull align 8 dereferenceable(8) %0, i32 noundef %1) #5 comdat align 2 {
  %3 = alloca ptr, align 8
  %4 = alloca i32, align 4
  store ptr %0, ptr %3, align 8, !tbaa !370
  store i32 %1, ptr %4, align 4, !tbaa !10
  %5 = load ptr, ptr %3, align 8
  %6 = getelementptr inbounds nuw %class.vector.41, ptr %5, i32 0, i32 0
  %7 = load ptr, ptr %6, align 8, !tbaa !372
  %8 = load i32, ptr %4, align 4, !tbaa !10
  %9 = zext i32 %8 to i64
  %10 = getelementptr inbounds nuw ptr, ptr %7, i64 %9
  ret ptr %10
}

; Function Attrs: mustprogress nounwind uwtable
define linkonce_odr hidden noundef i32 @_ZNK15ref_vector_coreIN7datalog4ruleE19ref_manager_wrapperIS1_NS0_12rule_managerEEE4sizeEv(ptr noundef nonnull align 8 dereferenceable(16) %0) #5 comdat align 2 {
  %2 = alloca ptr, align 8
  store ptr %0, ptr %2, align 8, !tbaa !373
  %3 = load ptr, ptr %2, align 8
  %4 = getelementptr inbounds nuw %class.ref_vector_core.80, ptr %3, i32 0, i32 1
  %5 = call noundef i32 @_ZNK6vectorIPN7datalog4ruleELb0EjE4sizeEv(ptr noundef nonnull align 8 dereferenceable(8) %4)
  ret i32 %5
}

; Function Attrs: mustprogress nounwind uwtable
define linkonce_odr hidden noundef ptr @_ZNK6vectorIPN7datalog4ruleELb0EjE5beginEv(ptr noundef nonnull align 8 dereferenceable(8) %0) #5 comdat align 2 {
  %2 = alloca ptr, align 8
  store ptr %0, ptr %2, align 8, !tbaa !370
  %3 = load ptr, ptr %2, align 8
  %4 = getelementptr inbounds nuw %class.vector.41, ptr %3, i32 0, i32 0
  %5 = load ptr, ptr %4, align 8, !tbaa !372
  ret ptr %5
}

; Function Attrs: mustprogress uwtable
define linkonce_odr hidden noundef nonnull align 8 dereferenceable(16) ptr @_ZN10ref_vectorIN7datalog4ruleENS0_12rule_managerEE11element_refaSEPS1_(ptr noundef nonnull align 8 dereferenceable(16) %0, ptr noundef %1) #4 comdat align 2 {
  %3 = alloca ptr, align 8
  %4 = alloca ptr, align 8
  store ptr %0, ptr %3, align 8, !tbaa !411
  store ptr %1, ptr %4, align 8, !tbaa !238
  %5 = load ptr, ptr %3, align 8
  %6 = getelementptr inbounds nuw %"class.ref_vector<datalog::rule, datalog::rule_manager>::element_ref", ptr %5, i32 0, i32 1
  %7 = load ptr, ptr %6, align 8, !tbaa !413
  %8 = load ptr, ptr %4, align 8, !tbaa !238
  call void @_ZN7datalog12rule_manager7inc_refEPNS_4ruleE(ptr noundef nonnull align 8 dereferenceable(1104) %7, ptr noundef %8)
  %9 = getelementptr inbounds nuw %"class.ref_vector<datalog::rule, datalog::rule_manager>::element_ref", ptr %5, i32 0, i32 1
  %10 = load ptr, ptr %9, align 8, !tbaa !413
  %11 = getelementptr inbounds nuw %"class.ref_vector<datalog::rule, datalog::rule_manager>::element_ref", ptr %5, i32 0, i32 0
  %12 = load ptr, ptr %11, align 8, !tbaa !415
  %13 = load ptr, ptr %12, align 8, !tbaa !238
  call void @_ZN7datalog12rule_manager7dec_refEPNS_4ruleE(ptr noundef nonnull align 8 dereferenceable(1104) %10, ptr noundef %13)
  %14 = load ptr, ptr %4, align 8, !tbaa !238
  %15 = getelementptr inbounds nuw %"class.ref_vector<datalog::rule, datalog::rule_manager>::element_ref", ptr %5, i32 0, i32 0
  %16 = load ptr, ptr %15, align 8, !tbaa !415
  store ptr %14, ptr %16, align 8, !tbaa !238
  ret ptr %5
}

; Function Attrs: mustprogress uwtable
define linkonce_odr hidden { ptr, ptr } @_ZN10ref_vectorIN7datalog4ruleENS0_12rule_managerEEixEj(ptr noundef nonnull align 8 dereferenceable(16) %0, i32 noundef %1) #4 comdat align 2 {
  %3 = alloca %"class.ref_vector<datalog::rule, datalog::rule_manager>::element_ref", align 8
  %4 = alloca ptr, align 8
  %5 = alloca i32, align 4
  store ptr %0, ptr %4, align 8, !tbaa !369
  store i32 %1, ptr %5, align 4, !tbaa !10
  %6 = load ptr, ptr %4, align 8
  %7 = getelementptr inbounds nuw %class.ref_vector_core.80, ptr %6, i32 0, i32 1
  %8 = load i32, ptr %5, align 4, !tbaa !10
  %9 = call noundef nonnull align 8 dereferenceable(8) ptr @_ZN6vectorIPN7datalog4ruleELb0EjEixEj(ptr noundef nonnull align 8 dereferenceable(8) %7, i32 noundef %8)
  %10 = getelementptr inbounds nuw %class.ref_manager_wrapper.81, ptr %6, i32 0, i32 0
  %11 = load ptr, ptr %10, align 8, !tbaa !410
  call void @_ZN10ref_vectorIN7datalog4ruleENS0_12rule_managerEE11element_refC2ERPS1_RS2_(ptr noundef nonnull align 8 dereferenceable(16) %3, ptr noundef nonnull align 8 dereferenceable(8) %9, ptr noundef nonnull align 8 dereferenceable(1104) %11)
  %12 = load { ptr, ptr }, ptr %3, align 8
  ret { ptr, ptr } %12
}

; Function Attrs: mustprogress nounwind uwtable
define linkonce_odr hidden noundef ptr @_ZNK15ref_vector_coreIN7datalog4ruleE19ref_manager_wrapperIS1_NS0_12rule_managerEEE3endEv(ptr noundef nonnull align 8 dereferenceable(16) %0) #5 comdat align 2 {
  %2 = alloca ptr, align 8
  store ptr %0, ptr %2, align 8, !tbaa !373
  %3 = load ptr, ptr %2, align 8
  %4 = call noundef ptr @_ZNK15ref_vector_coreIN7datalog4ruleE19ref_manager_wrapperIS1_NS0_12rule_managerEEE5beginEv(ptr noundef nonnull align 8 dereferenceable(16) %3)
  %5 = call noundef i32 @_ZNK15ref_vector_coreIN7datalog4ruleE19ref_manager_wrapperIS1_NS0_12rule_managerEEE4sizeEv(ptr noundef nonnull align 8 dereferenceable(16) %3)
  %6 = zext i32 %5 to i64
  %7 = getelementptr inbounds nuw ptr, ptr %4, i64 %6
  ret ptr %7
}

; Function Attrs: mustprogress nounwind uwtable
define linkonce_odr hidden noundef ptr @_ZNK15ref_vector_coreIN7datalog4ruleE19ref_manager_wrapperIS1_NS0_12rule_managerEEE5beginEv(ptr noundef nonnull align 8 dereferenceable(16) %0) #5 comdat align 2 {
  %2 = alloca ptr, align 8
  store ptr %0, ptr %2, align 8, !tbaa !373
  %3 = load ptr, ptr %2, align 8
  %4 = getelementptr inbounds nuw %class.ref_vector_core.80, ptr %3, i32 0, i32 1
  %5 = call noundef ptr @_ZNK6vectorIPN7datalog4ruleELb0EjE5beginEv(ptr noundef nonnull align 8 dereferenceable(8) %4)
  ret ptr %5
}

; Function Attrs: mustprogress nounwind uwtable
define linkonce_odr hidden noundef nonnull align 8 dereferenceable(16) ptr @_ZNK6vectorI10ref_vectorIN7datalog4ruleENS1_12rule_managerEELb1EjEixEj(ptr noundef nonnull align 8 dereferenceable(8) %0, i32 noundef %1) #5 comdat align 2 {
  %3 = alloca ptr, align 8
  %4 = alloca i32, align 4
  store ptr %0, ptr %3, align 8, !tbaa !364
  store i32 %1, ptr %4, align 4, !tbaa !10
  %5 = load ptr, ptr %3, align 8
  %6 = getelementptr inbounds nuw %class.vector.142, ptr %5, i32 0, i32 0
  %7 = load ptr, ptr %6, align 8, !tbaa !366
  %8 = load i32, ptr %4, align 4, !tbaa !10
  %9 = zext i32 %8 to i64
  %10 = getelementptr inbounds nuw %class.ref_vector.79, ptr %7, i64 %9
  ret ptr %10
}

; Function Attrs: mustprogress nounwind uwtable
define linkonce_odr hidden noundef ptr @_ZNK7obj_refIN7datalog4ruleENS0_12rule_managerEE3getEv(ptr noundef nonnull align 8 dereferenceable(16) %0) #5 comdat align 2 {
  %2 = alloca ptr, align 8
  store ptr %0, ptr %2, align 8, !tbaa !343
  %3 = load ptr, ptr %2, align 8
  %4 = getelementptr inbounds nuw %class.obj_ref.141, ptr %3, i32 0, i32 0
  %5 = load ptr, ptr %4, align 8, !tbaa !345
  ret ptr %5
}

; Function Attrs: mustprogress nounwind uwtable
define linkonce_odr hidden noundef i32 @_ZNK6vectorI10ref_vectorIN7datalog4ruleENS1_12rule_managerEELb1EjE4sizeEv(ptr noundef nonnull align 8 dereferenceable(8) %0) #5 comdat align 2 {
  %2 = alloca i32, align 4
  %3 = alloca ptr, align 8
  store ptr %0, ptr %3, align 8, !tbaa !364
  %4 = load ptr, ptr %3, align 8
  %5 = getelementptr inbounds nuw %class.vector.142, ptr %4, i32 0, i32 0
  %6 = load ptr, ptr %5, align 8, !tbaa !366
  %7 = icmp eq ptr %6, null
  br i1 %7, label %8, label %9

8:                                                ; preds = %1
  store i32 0, ptr %2, align 4
  br label %14

9:                                                ; preds = %1
  %10 = getelementptr inbounds nuw %class.vector.142, ptr %4, i32 0, i32 0
  %11 = load ptr, ptr %10, align 8, !tbaa !366
  %12 = getelementptr inbounds i32, ptr %11, i64 -1
  %13 = load i32, ptr %12, align 4, !tbaa !10
  store i32 %13, ptr %2, align 4
  br label %14

14:                                               ; preds = %9, %8
  %15 = load i32, ptr %2, align 4
  ret i32 %15
}

; Function Attrs: mustprogress uwtable
define hidden void @_ZN7datalog14mk_synchronize11merge_rulesEjR10ref_vectorINS_4ruleENS_12rule_managerEERK6vectorIS4_Lb1EjERNS_8rule_setE(ptr noundef nonnull align 8 dereferenceable(88) %0, i32 noundef %1, ptr noundef nonnull align 8 dereferenceable(16) %2, ptr noundef nonnull align 8 dereferenceable(8) %3, ptr noundef nonnull align 8 dereferenceable(248) %4) #4 align 2 personality ptr @__gxx_personality_v0 {
  %6 = alloca ptr, align 8
  %7 = alloca i32, align 4
  %8 = alloca ptr, align 8
  %9 = alloca ptr, align 8
  %10 = alloca ptr, align 8
  %11 = alloca %class.obj_ref.141, align 8
  %12 = alloca ptr, align 8
  %13 = alloca i32, align 4
  %14 = alloca ptr, align 8
  %15 = alloca ptr, align 8
  %16 = alloca ptr, align 8
  %17 = alloca ptr, align 8
  %18 = alloca %"class.ref_vector<datalog::rule, datalog::rule_manager>::element_ref", align 8
  store ptr %0, ptr %6, align 8, !tbaa !3
  store i32 %1, ptr %7, align 4, !tbaa !10
  store ptr %2, ptr %8, align 8, !tbaa !369
  store ptr %3, ptr %9, align 8, !tbaa !364
  store ptr %4, ptr %10, align 8, !tbaa !317
  %19 = load ptr, ptr %6, align 8
  %20 = load i32, ptr %7, align 4, !tbaa !10
  %21 = load ptr, ptr %9, align 8, !tbaa !364
  %22 = call noundef i32 @_ZNK6vectorI10ref_vectorIN7datalog4ruleENS1_12rule_managerEELb1EjE4sizeEv(ptr noundef nonnull align 8 dereferenceable(8) %21)
  %23 = icmp uge i32 %20, %22
  br i1 %23, label %24, label %34

24:                                               ; preds = %5
  call void @llvm.lifetime.start.p0(i64 16, ptr %11) #3
  %25 = load ptr, ptr %8, align 8, !tbaa !369
  call void @_ZN7datalog14mk_synchronize12product_ruleERK10ref_vectorINS_4ruleENS_12rule_managerEE(ptr dead_on_unwind writable sret(%class.obj_ref.141) align 8 %11, ptr noundef nonnull align 8 dereferenceable(88) %19, ptr noundef nonnull align 8 dereferenceable(16) %25)
  %26 = load ptr, ptr %10, align 8, !tbaa !317
  %27 = invoke noundef ptr @_ZNK7obj_refIN7datalog4ruleENS0_12rule_managerEE3getEv(ptr noundef nonnull align 8 dereferenceable(16) %11)
          to label %28 unwind label %30

28:                                               ; preds = %24
  invoke void @_ZN7datalog8rule_set8add_ruleEPNS_4ruleE(ptr noundef nonnull align 8 dereferenceable(248) %26, ptr noundef %27)
          to label %29 unwind label %30

29:                                               ; preds = %28
  call void @_ZN7obj_refIN7datalog4ruleENS0_12rule_managerEED2Ev(ptr noundef nonnull align 8 dereferenceable(16) %11) #3
  call void @llvm.lifetime.end.p0(i64 16, ptr %11) #3
  br label %67

30:                                               ; preds = %28, %24
  %31 = landingpad { ptr, i32 }
          cleanup
  %32 = extractvalue { ptr, i32 } %31, 0
  store ptr %32, ptr %12, align 8
  %33 = extractvalue { ptr, i32 } %31, 1
  store i32 %33, ptr %13, align 4
  call void @_ZN7obj_refIN7datalog4ruleENS0_12rule_managerEED2Ev(ptr noundef nonnull align 8 dereferenceable(16) %11) #3
  call void @llvm.lifetime.end.p0(i64 16, ptr %11) #3
  br label %68

34:                                               ; preds = %5
  call void @llvm.lifetime.start.p0(i64 8, ptr %14) #3
  %35 = load ptr, ptr %9, align 8, !tbaa !364
  %36 = load i32, ptr %7, align 4, !tbaa !10
  %37 = call noundef nonnull align 8 dereferenceable(16) ptr @_ZNK6vectorI10ref_vectorIN7datalog4ruleENS1_12rule_managerEELb1EjEixEj(ptr noundef nonnull align 8 dereferenceable(8) %35, i32 noundef %36)
  store ptr %37, ptr %14, align 8, !tbaa !369
  call void @llvm.lifetime.start.p0(i64 8, ptr %15) #3
  %38 = load ptr, ptr %14, align 8, !tbaa !369
  %39 = call noundef ptr @_ZNK15ref_vector_coreIN7datalog4ruleE19ref_manager_wrapperIS1_NS0_12rule_managerEEE5beginEv(ptr noundef nonnull align 8 dereferenceable(16) %38)
  store ptr %39, ptr %15, align 8, !tbaa !363
  call void @llvm.lifetime.start.p0(i64 8, ptr %16) #3
  %40 = load ptr, ptr %14, align 8, !tbaa !369
  %41 = call noundef ptr @_ZNK15ref_vector_coreIN7datalog4ruleE19ref_manager_wrapperIS1_NS0_12rule_managerEEE3endEv(ptr noundef nonnull align 8 dereferenceable(16) %40)
  store ptr %41, ptr %16, align 8, !tbaa !363
  br label %42

42:                                               ; preds = %64, %34
  %43 = load ptr, ptr %15, align 8, !tbaa !363
  %44 = load ptr, ptr %16, align 8, !tbaa !363
  %45 = icmp ne ptr %43, %44
  br i1 %45, label %47, label %46

46:                                               ; preds = %42
  call void @llvm.lifetime.end.p0(i64 8, ptr %16) #3
  call void @llvm.lifetime.end.p0(i64 8, ptr %15) #3
  call void @llvm.lifetime.end.p0(i64 8, ptr %14) #3
  br label %67

47:                                               ; preds = %42
  call void @llvm.lifetime.start.p0(i64 8, ptr %17) #3
  %48 = load ptr, ptr %15, align 8, !tbaa !363
  %49 = load ptr, ptr %48, align 8, !tbaa !238
  store ptr %49, ptr %17, align 8, !tbaa !238
  %50 = load ptr, ptr %17, align 8, !tbaa !238
  call void @llvm.lifetime.start.p0(i64 16, ptr %18) #3
  %51 = load ptr, ptr %8, align 8, !tbaa !369
  %52 = load i32, ptr %7, align 4, !tbaa !10
  %53 = call { ptr, ptr } @_ZN10ref_vectorIN7datalog4ruleENS0_12rule_managerEEixEj(ptr noundef nonnull align 8 dereferenceable(16) %51, i32 noundef %52)
  %54 = getelementptr inbounds nuw { ptr, ptr }, ptr %18, i32 0, i32 0
  %55 = extractvalue { ptr, ptr } %53, 0
  store ptr %55, ptr %54, align 8
  %56 = getelementptr inbounds nuw { ptr, ptr }, ptr %18, i32 0, i32 1
  %57 = extractvalue { ptr, ptr } %53, 1
  store ptr %57, ptr %56, align 8
  %58 = call noundef nonnull align 8 dereferenceable(16) ptr @_ZN10ref_vectorIN7datalog4ruleENS0_12rule_managerEE11element_refaSEPS1_(ptr noundef nonnull align 8 dereferenceable(16) %18, ptr noundef %50)
  call void @llvm.lifetime.end.p0(i64 16, ptr %18) #3
  %59 = load i32, ptr %7, align 4, !tbaa !10
  %60 = add i32 %59, 1
  %61 = load ptr, ptr %8, align 8, !tbaa !369
  %62 = load ptr, ptr %9, align 8, !tbaa !364
  %63 = load ptr, ptr %10, align 8, !tbaa !317
  call void @_ZN7datalog14mk_synchronize11merge_rulesEjR10ref_vectorINS_4ruleENS_12rule_managerEERK6vectorIS4_Lb1EjERNS_8rule_setE(ptr noundef nonnull align 8 dereferenceable(88) %19, i32 noundef %60, ptr noundef nonnull align 8 dereferenceable(16) %61, ptr noundef nonnull align 8 dereferenceable(8) %62, ptr noundef nonnull align 8 dereferenceable(248) %63)
  call void @llvm.lifetime.end.p0(i64 8, ptr %17) #3
  br label %64

64:                                               ; preds = %47
  %65 = load ptr, ptr %15, align 8, !tbaa !363
  %66 = getelementptr inbounds nuw ptr, ptr %65, i32 1
  store ptr %66, ptr %15, align 8, !tbaa !363
  br label %42

67:                                               ; preds = %29, %46
  ret void

68:                                               ; preds = %30
  %69 = load ptr, ptr %12, align 8
  %70 = load i32, ptr %13, align 4
  %71 = insertvalue { ptr, i32 } poison, ptr %69, 0
  %72 = insertvalue { ptr, i32 } %71, i32 %70, 1
  resume { ptr, i32 } %72
}