; Function Attrs: mustprogress uwtable
define hidden void @_ZN7datalog14mk_synchronize11merge_rulesEjR10ref_vectorINS_4ruleENS_12rule_managerEERK6vectorIS4_Lb1EjERNS_8rule_setE(ptr noundef nonnull readonly align 8 captures(none) dereferenceable(88) %0, i32 noundef %1, ptr noundef nonnull readonly align 8 captures(none) dereferenceable(16) %2, ptr noundef nonnull readonly align 8 captures(none) dereferenceable(8) %3, ptr noundef nonnull align 8 dereferenceable(248) %4) local_unnamed_addr #3 align 2 personality ptr @__gxx_personality_v0 {
  %6 = alloca %class.obj_ref.141, align 8
  %7 = load ptr, ptr %3, align 8, !tbaa !311
  %8 = icmp eq ptr %7, null
  br i1 %8, label %_ZNK6vectorI10ref_vectorIN7datalog4ruleENS1_12rule_managerEELb1EjE4sizeEv.exit.thread, label %_ZNK6vectorI10ref_vectorIN7datalog4ruleENS1_12rule_managerEELb1EjE4sizeEv.exit

_ZNK6vectorI10ref_vectorIN7datalog4ruleENS1_12rule_managerEELb1EjE4sizeEv.exit: ; preds = %5
  %9 = getelementptr inbounds i8, ptr %7, i64 -4
  %10 = load i32, ptr %9, align 4, !tbaa !247
  %.not = icmp ult i32 %1, %10
  br i1 %.not, label %22, label %_ZNK6vectorI10ref_vectorIN7datalog4ruleENS1_12rule_managerEELb1EjE4sizeEv.exit.thread

_ZNK6vectorI10ref_vectorIN7datalog4ruleENS1_12rule_managerEELb1EjE4sizeEv.exit.thread: ; preds = %5, %_ZNK6vectorI10ref_vectorIN7datalog4ruleENS1_12rule_managerEELb1EjE4sizeEv.exit
  call void @llvm.lifetime.start.p0(i64 16, ptr nonnull %6) #20
  call void @_ZN7datalog14mk_synchronize12product_ruleERK10ref_vectorINS_4ruleENS_12rule_managerEE(ptr dead_on_unwind nonnull writable sret(%class.obj_ref.141) align 8 %6, ptr noundef nonnull align 8 dereferenceable(88) %0, ptr noundef nonnull align 8 dereferenceable(16) %2)
  %11 = load ptr, ptr %6, align 8, !tbaa !297
  invoke void @_ZN7datalog8rule_set8add_ruleEPNS_4ruleE(ptr noundef nonnull align 8 dereferenceable(248) %4, ptr noundef %11)
          to label %12 unwind label %20

12:                                               ; preds = %_ZNK6vectorI10ref_vectorIN7datalog4ruleENS1_12rule_managerEELb1EjE4sizeEv.exit.thread
  %13 = load ptr, ptr %6, align 8, !tbaa !297
  %.not.i.i = icmp eq ptr %13, null
  br i1 %.not.i.i, label %_ZN7obj_refIN7datalog4ruleENS0_12rule_managerEED2Ev.exit, label %14

14:                                               ; preds = %12
  %15 = getelementptr inbounds nuw i8, ptr %6, i64 8
  %16 = load ptr, ptr %15, align 8, !tbaa !300
  invoke void @_ZN7datalog12rule_manager7dec_refEPNS_4ruleE(ptr noundef nonnull align 8 dereferenceable(1104) %16, ptr noundef nonnull %13)
          to label %_ZN7obj_refIN7datalog4ruleENS0_12rule_managerEED2Ev.exit unwind label %17

17:                                               ; preds = %14
  %18 = landingpad { ptr, i32 }
          catch ptr null
  %19 = extractvalue { ptr, i32 } %18, 0
  call void @__clang_call_terminate(ptr %19) #21
  unreachable

_ZN7obj_refIN7datalog4ruleENS0_12rule_managerEED2Ev.exit: ; preds = %12, %14
  call void @llvm.lifetime.end.p0(i64 16, ptr nonnull %6) #20
  br label %.loopexit

20:                                               ; preds = %_ZNK6vectorI10ref_vectorIN7datalog4ruleENS1_12rule_managerEELb1EjE4sizeEv.exit.thread
  %21 = landingpad { ptr, i32 }
          cleanup
  call void @_ZN7obj_refIN7datalog4ruleENS0_12rule_managerEED2Ev(ptr noundef nonnull align 8 dereferenceable(16) %6) #20
  call void @llvm.lifetime.end.p0(i64 16, ptr nonnull %6) #20
  resume { ptr, i32 } %21

22:                                               ; preds = %_ZNK6vectorI10ref_vectorIN7datalog4ruleENS1_12rule_managerEELb1EjE4sizeEv.exit
  %23 = zext i32 %1 to i64
  %24 = getelementptr inbounds nuw %class.ref_vector.79, ptr %7, i64 %23, i32 0, i32 1
  %25 = load ptr, ptr %24, align 8, !tbaa !314
  %26 = icmp eq ptr %25, null
  br i1 %26, label %.loopexit, label %_ZNK15ref_vector_coreIN7datalog4ruleE19ref_manager_wrapperIS1_NS0_12rule_managerEEE3endEv.exit

_ZNK15ref_vector_coreIN7datalog4ruleE19ref_manager_wrapperIS1_NS0_12rule_managerEEE3endEv.exit: ; preds = %22
  %27 = getelementptr inbounds i8, ptr %25, i64 -4
  %28 = load i32, ptr %27, align 4, !tbaa !247
  %29 = zext i32 %28 to i64
  %30 = getelementptr inbounds nuw ptr, ptr %25, i64 %29
  %.not2227 = icmp eq i32 %28, 0
  br i1 %.not2227, label %.loopexit, label %.lr.ph

.lr.ph:                                           ; preds = %_ZNK15ref_vector_coreIN7datalog4ruleE19ref_manager_wrapperIS1_NS0_12rule_managerEEE3endEv.exit
  %31 = getelementptr inbounds nuw i8, ptr %2, i64 8
  %32 = add nuw i32 %1, 1
  br label %33

33:                                               ; preds = %.lr.ph, %33
  %.028 = phi ptr [ %25, %.lr.ph ], [ %39, %33 ]
  %34 = load ptr, ptr %.028, align 8, !tbaa !315
  %35 = load ptr, ptr %31, align 8, !tbaa !314
  %36 = getelementptr inbounds nuw ptr, ptr %35, i64 %23
  %37 = load ptr, ptr %2, align 8, !tbaa !316
  tail call void @_ZN7datalog12rule_manager7inc_refEPNS_4ruleE(ptr noundef nonnull align 8 dereferenceable(1104) %37, ptr noundef %34)
  %38 = load ptr, ptr %36, align 8, !tbaa !315
  tail call void @_ZN7datalog12rule_manager7dec_refEPNS_4ruleE(ptr noundef nonnull align 8 dereferenceable(1104) %37, ptr noundef %38)
  store ptr %34, ptr %36, align 8, !tbaa !315
  tail call void @_ZN7datalog14mk_synchronize11merge_rulesEjR10ref_vectorINS_4ruleENS_12rule_managerEERK6vectorIS4_Lb1EjERNS_8rule_setE(ptr noundef nonnull align 8 dereferenceable(88) %0, i32 noundef %32, ptr noundef nonnull align 8 dereferenceable(16) %2, ptr noundef nonnull align 8 dereferenceable(8) %3, ptr noundef nonnull align 8 dereferenceable(248) %4)
  %39 = getelementptr inbounds nuw i8, ptr %.028, i64 8
  %.not22 = icmp eq ptr %39, %30
  br i1 %.not22, label %.loopexit, label %33

.loopexit:                                        ; preds = %33, %22, %_ZNK15ref_vector_coreIN7datalog4ruleE19ref_manager_wrapperIS1_NS0_12rule_managerEEE3endEv.exit, %_ZN7obj_refIN7datalog4ruleENS0_12rule_managerEED2Ev.exit
  ret void
}